target datalayout = "e-m:e-p270:32:32-p271:32:32-p272:64:64-i64:64-i128:128-f80:128-n8:16:32:64-S128"
target triple = "x86_64-pc-linux-gnu"

%struct.preference = type { ptr, ptr, ptr, i32, i32, i32, %union.anon, %union.anon.0, %union.anon.1, %union.anon.2, %struct.pref_custom_cbs, ptr, ptr }
%union.anon = type { ptr }
%union.anon.0 = type { ptr }
%union.anon.1 = type { ptr }
%union.anon.2 = type { %struct.anon }
%struct.anon = type { ptr, i8 }
%struct.pref_custom_cbs = type { ptr, ptr, ptr, ptr, ptr, ptr, ptr }
%struct._fmt_data = type { ptr, i32, ptr, i32, i8, i8 }
%struct._GList = type { ptr, ptr, ptr }

; Function Attrs: null_pointer_is_valid sspstrong uwtable
define internal void @free_col_info(ptr noundef %0) #1 {
  %2 = alloca ptr, align 8
  %3 = alloca ptr, align 8
  %4 = alloca ptr, align 8
  store ptr %0, ptr %2, align 8
  call void @llvm.lifetime.start.p0(i64 8, ptr %3) #17
  call void @llvm.lifetime.start.p0(i64 8, ptr %4) #17
  %5 = load ptr, ptr %2, align 8
  store ptr %5, ptr %4, align 8
  br label %6

6:                                                ; preds = %27, %1
  %7 = load ptr, ptr %2, align 8
  %8 = icmp ne ptr %7, null
  br i1 %8, label %9, label %29

9:                                                ; preds = %6
  %10 = load ptr, ptr %2, align 8
  %11 = getelementptr inbounds nuw %struct._GList, ptr %10, i32 0, i32 0
  %12 = load ptr, ptr %11, align 8
  store ptr %12, ptr %3, align 8
  %13 = load ptr, ptr %3, align 8
  %14 = getelementptr inbounds nuw %struct._fmt_data, ptr %13, i32 0, i32 0
  %15 = load ptr, ptr %14, align 8
  call void @g_free(ptr noundef %15)
  %16 = load ptr, ptr %3, align 8
  %17 = getelementptr inbounds nuw %struct._fmt_data, ptr %16, i32 0, i32 2
  %18 = load ptr, ptr %17, align 8
  call void @g_free(ptr noundef %18)
  %19 = load ptr, ptr %3, align 8
  call void @g_free(ptr noundef %19)
  %20 = load ptr, ptr %2, align 8
  %21 = icmp ne ptr %20, null
  br i1 %21, label %22, label %26

22:                                               ; preds = %9
  %23 = load ptr, ptr %2, align 8
  %24 = getelementptr inbounds nuw %struct._GList, ptr %23, i32 0, i32 1
  %25 = load ptr, ptr %24, align 8
  br label %27

26:                                               ; preds = %9
  br label %27

27:                                               ; preds = %26, %22
  %28 = phi ptr [ %25, %22 ], [ null, %26 ]
  store ptr %28, ptr %2, align 8
  br label %6, !llvm.loop !61

29:                                               ; preds = %6
  %30 = load ptr, ptr %4, align 8
  call void @g_list_free(ptr noundef %30)
  call void @llvm.lifetime.end.p0(i64 8, ptr %4) #17
  call void @llvm.lifetime.end.p0(i64 8, ptr %3) #17
  ret void
}

; Function Attrs: null_pointer_is_valid sspstrong uwtable
define internal void @column_format_free_cb(ptr noundef %0) #1 {
  %2 = alloca ptr, align 8
  store ptr %0, ptr %2, align 8
  %3 = load ptr, ptr %2, align 8
  %4 = getelementptr inbounds nuw %struct.preference, ptr %3, i32 0, i32 6
  %5 = load ptr, ptr %4, align 8
  %6 = load ptr, ptr %5, align 8
  call void @free_col_info(ptr noundef %6)
  %7 = load ptr, ptr %2, align 8
  %8 = getelementptr inbounds nuw %struct.preference, ptr %7, i32 0, i32 8
  %9 = load ptr, ptr %8, align 8
  call void @free_col_info(ptr noundef %9)
  ret void
}