; Function Attrs: null_pointer_is_valid sspstrong uwtable
define internal void @column_format_free_cb(ptr noundef readonly captures(none) %0) #1 {
  %2 = getelementptr inbounds nuw i8, ptr %0, i64 40
  %3 = load ptr, ptr %2, align 8
  %4 = load ptr, ptr %3, align 8
  %.not9.i = icmp eq ptr %4, null
  br i1 %.not9.i, label %free_col_info.exit, label %.lr.ph.i

.lr.ph.i:                                         ; preds = %1, %.lr.ph.i
  %.010.i = phi ptr [ %10, %.lr.ph.i ], [ %4, %1 ]
  %5 = load ptr, ptr %.010.i, align 8
  %6 = load ptr, ptr %5, align 8
  tail call void @g_free(ptr noundef %6)
  %7 = getelementptr inbounds nuw i8, ptr %5, i64 16
  %8 = load ptr, ptr %7, align 8
  tail call void @g_free(ptr noundef %8)
  tail call void @g_free(ptr noundef %5)
  %9 = getelementptr inbounds nuw i8, ptr %.010.i, i64 8
  %10 = load ptr, ptr %9, align 8
  %.not.i = icmp eq ptr %10, null
  br i1 %.not.i, label %free_col_info.exit, label %.lr.ph.i, !llvm.loop !8

free_col_info.exit:                               ; preds = %.lr.ph.i, %1
  tail call void @g_list_free(ptr noundef %4)
  %11 = getelementptr inbounds nuw i8, ptr %0, i64 56
  %12 = load ptr, ptr %11, align 8
  %.not9.i2 = icmp eq ptr %12, null
  br i1 %.not9.i2, label %free_col_info.exit6, label %.lr.ph.i3

.lr.ph.i3:                                        ; preds = %free_col_info.exit, %.lr.ph.i3
  %.010.i4 = phi ptr [ %18, %.lr.ph.i3 ], [ %12, %free_col_info.exit ]
  %13 = load ptr, ptr %.010.i4, align 8
  %14 = load ptr, ptr %13, align 8
  tail call void @g_free(ptr noundef %14)
  %15 = getelementptr inbounds nuw i8, ptr %13, i64 16
  %16 = load ptr, ptr %15, align 8
  tail call void @g_free(ptr noundef %16)
  tail call void @g_free(ptr noundef %13)
  %17 = getelementptr inbounds nuw i8, ptr %.010.i4, i64 8
  %18 = load ptr, ptr %17, align 8
  %.not.i5 = icmp eq ptr %18, null
  br i1 %.not.i5, label %free_col_info.exit6, label %.lr.ph.i3, !llvm.loop !8

free_col_info.exit6:                              ; preds = %.lr.ph.i3, %free_col_info.exit
  tail call void @g_list_free(ptr noundef %12)
  ret void
}